target datalayout = "e-m:e-p270:32:32-p271:32:32-p272:64:64-i64:64-i128:128-f80:128-n8:16:32:64-S128"
target triple = "x86_64-pc-linux-gnu"

%struct.Vec_Int_t_ = type { i32, i32, ptr }

; Function Attrs: nounwind uwtable
define internal void @Vec_IntGrow(ptr noundef %0, i32 noundef %1) #0 {
  %3 = alloca ptr, align 8
  %4 = alloca i32, align 4
  store ptr %0, ptr %3, align 8
  store i32 %1, ptr %4, align 4
  %5 = load ptr, ptr %3, align 8
  %6 = getelementptr inbounds %struct.Vec_Int_t_, ptr %5, i32 0, i32 0
  %7 = load i32, ptr %6, align 8
  %8 = load i32, ptr %4, align 4
  %9 = icmp sge i32 %7, %8
  br i1 %9, label %10, label %11

10:                                               ; preds = %2
  br label %36

11:                                               ; preds = %2
  %12 = load ptr, ptr %3, align 8
  %13 = getelementptr inbounds %struct.Vec_Int_t_, ptr %12, i32 0, i32 2
  %14 = load ptr, ptr %13, align 8
  %15 = icmp ne ptr %14, null
  br i1 %15, label %16, label %24

16:                                               ; preds = %11
  %17 = load ptr, ptr %3, align 8
  %18 = getelementptr inbounds %struct.Vec_Int_t_, ptr %17, i32 0, i32 2
  %19 = load ptr, ptr %18, align 8
  %20 = load i32, ptr %4, align 4
  %21 = sext i32 %20 to i64
  %22 = mul i64 4, %21
  %23 = call ptr @realloc(ptr noundef %19, i64 noundef %22) #13
  br label %29

24:                                               ; preds = %11
  %25 = load i32, ptr %4, align 4
  %26 = sext i32 %25 to i64
  %27 = mul i64 4, %26
  %28 = call noalias ptr @malloc(i64 noundef %27) #10
  br label %29

29:                                               ; preds = %24, %16
  %30 = phi ptr [ %23, %16 ], [ %28, %24 ]
  %31 = load ptr, ptr %3, align 8
  %32 = getelementptr inbounds %struct.Vec_Int_t_, ptr %31, i32 0, i32 2
  store ptr %30, ptr %32, align 8
  %33 = load i32, ptr %4, align 4
  %34 = load ptr, ptr %3, align 8
  %35 = getelementptr inbounds %struct.Vec_Int_t_, ptr %34, i32 0, i32 0
  store i32 %33, ptr %35, align 8
  br label %36

36:                                               ; preds = %29, %10
  ret void
}

; Function Attrs: nounwind uwtable
define internal void @Vec_IntPushOrder(ptr noundef %0, i32 noundef %1) #0 {
  %3 = alloca ptr, align 8
  %4 = alloca i32, align 4
  %5 = alloca i32, align 4
  store ptr %0, ptr %3, align 8
  store i32 %1, ptr %4, align 4
  %6 = load ptr, ptr %3, align 8
  %7 = getelementptr inbounds %struct.Vec_Int_t_, ptr %6, i32 0, i32 1
  %8 = load i32, ptr %7, align 4
  %9 = load ptr, ptr %3, align 8
  %10 = getelementptr inbounds %struct.Vec_Int_t_, ptr %9, i32 0, i32 0
  %11 = load i32, ptr %10, align 8
  %12 = icmp eq i32 %8, %11
  br i1 %12, label %13, label %27

13:                                               ; preds = %2
  %14 = load ptr, ptr %3, align 8
  %15 = getelementptr inbounds %struct.Vec_Int_t_, ptr %14, i32 0, i32 0
  %16 = load i32, ptr %15, align 8
  %17 = icmp slt i32 %16, 16
  br i1 %17, label %18, label %20

18:                                               ; preds = %13
  %19 = load ptr, ptr %3, align 8
  call void @Vec_IntGrow(ptr noundef %19, i32 noundef 16)
  br label %26

20:                                               ; preds = %13
  %21 = load ptr, ptr %3, align 8
  %22 = load ptr, ptr %3, align 8
  %23 = getelementptr inbounds %struct.Vec_Int_t_, ptr %22, i32 0, i32 0
  %24 = load i32, ptr %23, align 8
  %25 = mul nsw i32 2, %24
  call void @Vec_IntGrow(ptr noundef %21, i32 noundef %25)
  br label %26

26:                                               ; preds = %20, %18
  br label %27

27:                                               ; preds = %26, %2
  %28 = load ptr, ptr %3, align 8
  %29 = getelementptr inbounds %struct.Vec_Int_t_, ptr %28, i32 0, i32 1
  %30 = load i32, ptr %29, align 4
  %31 = add nsw i32 %30, 1
  store i32 %31, ptr %29, align 4
  %32 = load ptr, ptr %3, align 8
  %33 = getelementptr inbounds %struct.Vec_Int_t_, ptr %32, i32 0, i32 1
  %34 = load i32, ptr %33, align 4
  %35 = sub nsw i32 %34, 2
  store i32 %35, ptr %5, align 4
  br label %36

36:                                               ; preds = %66, %27
  %37 = load i32, ptr %5, align 4
  %38 = icmp sge i32 %37, 0
  br i1 %38, label %39, label %69

39:                                               ; preds = %36
  %40 = load ptr, ptr %3, align 8
  %41 = getelementptr inbounds %struct.Vec_Int_t_, ptr %40, i32 0, i32 2
  %42 = load ptr, ptr %41, align 8
  %43 = load i32, ptr %5, align 4
  %44 = sext i32 %43 to i64
  %45 = getelementptr inbounds i32, ptr %42, i64 %44
  %46 = load i32, ptr %45, align 4
  %47 = load i32, ptr %4, align 4
  %48 = icmp sgt i32 %46, %47
  br i1 %48, label %49, label %64

49:                                               ; preds = %39
  %50 = load ptr, ptr %3, align 8
  %51 = getelementptr inbounds %struct.Vec_Int_t_, ptr %50, i32 0, i32 2
  %52 = load ptr, ptr %51, align 8
  %53 = load i32, ptr %5, align 4
  %54 = sext i32 %53 to i64
  %55 = getelementptr inbounds i32, ptr %52, i64 %54
  %56 = load i32, ptr %55, align 4
  %57 = load ptr, ptr %3, align 8
  %58 = getelementptr inbounds %struct.Vec_Int_t_, ptr %57, i32 0, i32 2
  %59 = load ptr, ptr %58, align 8
  %60 = load i32, ptr %5, align 4
  %61 = add nsw i32 %60, 1
  %62 = sext i32 %61 to i64
  %63 = getelementptr inbounds i32, ptr %59, i64 %62
  store i32 %56, ptr %63, align 4
  br label %65

64:                                               ; preds = %39
  br label %69

65:                                               ; preds = %49
  br label %66

66:                                               ; preds = %65
  %67 = load i32, ptr %5, align 4
  %68 = add nsw i32 %67, -1
  store i32 %68, ptr %5, align 4
  br label %36, !llvm.loop !70

69:                                               ; preds = %64, %36
  %70 = load i32, ptr %4, align 4
  %71 = load ptr, ptr %3, align 8
  %72 = getelementptr inbounds %struct.Vec_Int_t_, ptr %71, i32 0, i32 2
  %73 = load ptr, ptr %72, align 8
  %74 = load i32, ptr %5, align 4
  %75 = add nsw i32 %74, 1
  %76 = sext i32 %75 to i64
  %77 = getelementptr inbounds i32, ptr %73, i64 %76
  store i32 %70, ptr %77, align 4
  ret void
}

; Function Attrs: nounwind uwtable
define internal i32 @Vec_IntPushUniqueOrder(ptr noundef %0, i32 noundef %1) #0 {
  %3 = alloca i32, align 4
  %4 = alloca ptr, align 8
  %5 = alloca i32, align 4
  %6 = alloca i32, align 4
  store ptr %0, ptr %4, align 8
  store i32 %1, ptr %5, align 4
  store i32 0, ptr %6, align 4
  br label %7

7:                                                ; preds = %25, %2
  %8 = load i32, ptr %6, align 4
  %9 = load ptr, ptr %4, align 8
  %10 = getelementptr inbounds %struct.Vec_Int_t_, ptr %9, i32 0, i32 1
  %11 = load i32, ptr %10, align 4
  %12 = icmp slt i32 %8, %11
  br i1 %12, label %13, label %28

13:                                               ; preds = %7
  %14 = load ptr, ptr %4, align 8
  %15 = getelementptr inbounds %struct.Vec_Int_t_, ptr %14, i32 0, i32 2
  %16 = load ptr, ptr %15, align 8
  %17 = load i32, ptr %6, align 4
  %18 = sext i32 %17 to i64
  %19 = getelementptr inbounds i32, ptr %16, i64 %18
  %20 = load i32, ptr %19, align 4
  %21 = load i32, ptr %5, align 4
  %22 = icmp eq i32 %20, %21
  br i1 %22, label %23, label %24

23:                                               ; preds = %13
  store i32 1, ptr %3, align 4
  br label %31

24:                                               ; preds = %13
  br label %25

25:                                               ; preds = %24
  %26 = load i32, ptr %6, align 4
  %27 = add nsw i32 %26, 1
  store i32 %27, ptr %6, align 4
  br label %7, !llvm.loop !51

28:                                               ; preds = %7
  %29 = load ptr, ptr %4, align 8
  %30 = load i32, ptr %5, align 4
  call void @Vec_IntPushOrder(ptr noundef %29, i32 noundef %30)
  store i32 0, ptr %3, align 4
  br label %31

31:                                               ; preds = %28, %23
  %32 = load i32, ptr %3, align 4
  ret i32 %32
}