; Function Attrs: nounwind uwtable
define internal fastcc void @Vec_IntPushUniqueOrder(ptr noundef captures(none) %0, i32 noundef %1) unnamed_addr #0 {
  %3 = getelementptr inbounds nuw i8, ptr %0, i64 4
  %4 = load i32, ptr %3, align 4
  %5 = icmp sgt i32 %4, 0
  br i1 %5, label %.lr.ph, label %._crit_edge

.lr.ph:                                           ; preds = %2
  %6 = getelementptr inbounds nuw i8, ptr %0, i64 8
  %7 = load ptr, ptr %6, align 8
  %wide.trip.count = zext nneg i32 %4 to i64
  br label %9

8:                                                ; preds = %9
  %indvars.iv.next = add nuw nsw i64 %indvars.iv, 1
  %exitcond.not = icmp eq i64 %indvars.iv.next, %wide.trip.count
  br i1 %exitcond.not, label %._crit_edge, label %9, !llvm.loop !53

9:                                                ; preds = %.lr.ph, %8
  %indvars.iv = phi i64 [ 0, %.lr.ph ], [ %indvars.iv.next, %8 ]
  %10 = getelementptr inbounds nuw i32, ptr %7, i64 %indvars.iv
  %11 = load i32, ptr %10, align 4
  %12 = icmp eq i32 %11, %1
  br i1 %12, label %.loopexit, label %8

._crit_edge:                                      ; preds = %8, %2
  %13 = load i32, ptr %0, align 8
  %14 = icmp eq i32 %4, %13
  br i1 %14, label %15, label %Vec_IntGrow.exit23.i

15:                                               ; preds = %._crit_edge
  %16 = icmp slt i32 %4, 16
  br i1 %16, label %17, label %25

17:                                               ; preds = %15
  %18 = getelementptr inbounds nuw i8, ptr %0, i64 8
  %19 = load ptr, ptr %18, align 8
  %.not9.i.i = icmp eq ptr %19, null
  br i1 %.not9.i.i, label %22, label %20

20:                                               ; preds = %17
  %21 = tail call dereferenceable_or_null(64) ptr @realloc(ptr noundef nonnull %19, i64 noundef 64) #24
  br label %Vec_IntGrow.exit.i

22:                                               ; preds = %17
  %23 = tail call noalias dereferenceable_or_null(64) ptr @malloc(i64 noundef 64) #25
  br label %Vec_IntGrow.exit.i

Vec_IntGrow.exit.i:                               ; preds = %22, %20
  %24 = phi ptr [ %21, %20 ], [ %23, %22 ]
  store ptr %24, ptr %18, align 8
  br label %Vec_IntGrow.exit23thread-pre-split.i

25:                                               ; preds = %15
  %26 = shl nuw nsw i32 %4, 1
  %27 = getelementptr inbounds nuw i8, ptr %0, i64 8
  %28 = load ptr, ptr %27, align 8
  %.not9.i22.i = icmp eq ptr %28, null
  %29 = zext nneg i32 %26 to i64
  %30 = shl nuw nsw i64 %29, 2
  br i1 %.not9.i22.i, label %33, label %31

31:                                               ; preds = %25
  %32 = tail call ptr @realloc(ptr noundef nonnull %28, i64 noundef %30) #24
  br label %35

33:                                               ; preds = %25
  %34 = tail call noalias ptr @malloc(i64 noundef %30) #25
  br label %35

35:                                               ; preds = %33, %31
  %36 = phi ptr [ %32, %31 ], [ %34, %33 ]
  store ptr %36, ptr %27, align 8
  br label %Vec_IntGrow.exit23thread-pre-split.i

Vec_IntGrow.exit23thread-pre-split.i:             ; preds = %35, %Vec_IntGrow.exit.i
  %.sink.i = phi i32 [ 16, %Vec_IntGrow.exit.i ], [ %26, %35 ]
  store i32 %.sink.i, ptr %0, align 8
  %.pr.i = load i32, ptr %3, align 4
  br label %Vec_IntGrow.exit23.i

Vec_IntGrow.exit23.i:                             ; preds = %Vec_IntGrow.exit23thread-pre-split.i, %._crit_edge
  %37 = phi i32 [ %.pr.i, %Vec_IntGrow.exit23thread-pre-split.i ], [ %4, %._crit_edge ]
  %38 = add nsw i32 %37, 1
  store i32 %38, ptr %3, align 4
  %39 = getelementptr inbounds nuw i8, ptr %0, i64 8
  %40 = icmp sgt i32 %37, 0
  br i1 %40, label %.lr.ph.preheader.i, label %Vec_IntPushOrder.exit

.lr.ph.preheader.i:                               ; preds = %Vec_IntGrow.exit23.i
  %41 = zext nneg i32 %37 to i64
  br label %.lr.ph.i

.lr.ph.i:                                         ; preds = %46, %.lr.ph.preheader.i
  %indvars.iv.i = phi i64 [ %41, %.lr.ph.preheader.i ], [ %indvars.iv.next.i, %46 ]
  %indvars.iv.next.i = add nsw i64 %indvars.iv.i, -1
  %42 = load ptr, ptr %39, align 8
  %43 = getelementptr inbounds nuw i32, ptr %42, i64 %indvars.iv.next.i
  %44 = load i32, ptr %43, align 4
  %45 = icmp sgt i32 %44, %1
  br i1 %45, label %46, label %._crit_edge.loopexit.split.loop.exit.i

46:                                               ; preds = %.lr.ph.i
  %47 = getelementptr inbounds nuw i32, ptr %42, i64 %indvars.iv.i
  store i32 %44, ptr %47, align 4
  %48 = icmp samesign ugt i64 %indvars.iv.i, 1
  br i1 %48, label %.lr.ph.i, label %Vec_IntPushOrder.exit, !llvm.loop !54

._crit_edge.loopexit.split.loop.exit.i:           ; preds = %.lr.ph.i
  %49 = trunc nuw nsw i64 %indvars.iv.i to i32
  br label %Vec_IntPushOrder.exit

Vec_IntPushOrder.exit:                            ; preds = %46, %Vec_IntGrow.exit23.i, %._crit_edge.loopexit.split.loop.exit.i
  %.0.in.lcssa.i = phi i32 [ %37, %Vec_IntGrow.exit23.i ], [ %49, %._crit_edge.loopexit.split.loop.exit.i ], [ 0, %46 ]
  %50 = load ptr, ptr %39, align 8
  %51 = sext i32 %.0.in.lcssa.i to i64
  %52 = getelementptr inbounds i32, ptr %50, i64 %51
  store i32 %1, ptr %52, align 4
  br label %.loopexit

.loopexit:                                        ; preds = %9, %Vec_IntPushOrder.exit
  ret void
}